; Function Attrs: mustprogress nounwind uwtable
define dso_local void @_ZN24btPairCachingGhostObjectD2Ev(ptr noundef nonnull align 8 dereferenceable(416) %this) unnamed_addr #3 align 2 personality ptr @__gxx_personality_v0 {
entry:
  store ptr getelementptr inbounds ({ [11 x ptr] }, ptr @_ZTV24btPairCachingGhostObject, i64 0, i32 0, i64 2), ptr %this, align 8
  %m_hashPairCache = getelementptr inbounds i8, ptr %this, i64 408
  %0 = load ptr, ptr %m_hashPairCache, align 8
  %vtable = load ptr, ptr %0, align 8
  %1 = load ptr, ptr %vtable, align 8
  tail call void %1(ptr noundef nonnull align 8 dereferenceable(120) %0) #15
  %2 = load ptr, ptr %m_hashPairCache, align 8
  invoke void @_Z21btAlignedFreeInternalPv(ptr noundef %2)
          to label %invoke.cont unwind label %terminate.lpad

invoke.cont:                                      ; preds = %entry
  store ptr getelementptr inbounds ({ [11 x ptr] }, ptr @_ZTV13btGhostObject, i64 0, i32 0, i64 2), ptr %this, align 8
  %m_data.i.i.i.i = getelementptr inbounds i8, ptr %this, i64 392
  %3 = load ptr, ptr %m_data.i.i.i.i, align 8
  %tobool.not.i.i.i.i = icmp eq ptr %3, null
  br i1 %tobool.not.i.i.i.i, label %_ZN13btGhostObjectD2Ev.exit, label %if.then.i.i.i.i

if.then.i.i.i.i:                                  ; preds = %invoke.cont
  %m_ownsMemory.i.i.i.i = getelementptr inbounds i8, ptr %this, i64 400
  %4 = load i8, ptr %m_ownsMemory.i.i.i.i, align 8
  %5 = and i8 %4, 1
  %tobool2.not.i.i.i.i = icmp eq i8 %5, 0
  br i1 %tobool2.not.i.i.i.i, label %_ZN13btGhostObjectD2Ev.exit, label %if.then3.i.i.i.i

if.then3.i.i.i.i:                                 ; preds = %if.then.i.i.i.i
  invoke void @_Z21btAlignedFreeInternalPv(ptr noundef nonnull %3)
          to label %_ZN13btGhostObjectD2Ev.exit unwind label %terminate.lpad.i.i

terminate.lpad.i.i:                               ; preds = %if.then3.i.i.i.i
  %6 = landingpad { ptr, i32 }
          catch ptr null
  %7 = extractvalue { ptr, i32 } %6, 0
  tail call void @__clang_call_terminate(ptr %7) #14
  unreachable

_ZN13btGhostObjectD2Ev.exit:                      ; preds = %invoke.cont, %if.then.i.i.i.i, %if.then3.i.i.i.i
  %m_size.i.i.i.i = getelementptr inbounds i8, ptr %this, i64 380
  %m_ownsMemory.i1.i.i.i = getelementptr inbounds i8, ptr %this, i64 400
  store i8 1, ptr %m_ownsMemory.i1.i.i.i, align 8
  store ptr null, ptr %m_data.i.i.i.i, align 8
  store i32 0, ptr %m_size.i.i.i.i, align 4
  %m_capacity.i.i.i.i = getelementptr inbounds i8, ptr %this, i64 384
  store i32 0, ptr %m_capacity.i.i.i.i, align 8
  tail call void @_ZN17btCollisionObjectD2Ev(ptr noundef nonnull align 8 dereferenceable(372) %this) #15
  ret void

terminate.lpad:                                   ; preds = %entry
  %8 = landingpad { ptr, i32 }
          catch ptr null
  %9 = extractvalue { ptr, i32 } %8, 0
  tail call void @__clang_call_terminate(ptr %9) #14
  unreachable
}